(lp1
cnumpy.core.multiarray
scalar
p2
(cnumpy
dtype
p3
(S'f4'
I0
I1
tRp4
(I3
S'<'
NNNI-1
I-1
I0
tbS'f\x13/?'
tRp5
ag2
(g4
S'B\xe2\x1d?'
tRp6
ag2
(g4
S'\xd5c\x1b?'
tRp7
ag2
(g4
S'\x99o\n?'
tRp8
ag2
(g4
S'"\xa5\xe5>'
tRp9
ag2
(g4
S'5)\xc9>'
tRp10
ag2
(g4
S'\xe3l\xb4>'
tRp11
ag2
(g4
S'\\\xc5\xa4>'
tRp12
ag2
(g4
S'\x98r\x97>'
tRp13
ag2
(g4
S'\x16\xf9\x92>'
tRp14
ag2
(g4
S'\x07C\x83>'
tRp15
ag2
(g4
S'\xff\xben>'
tRp16
ag2
(g4
S'\xac\xc9W>'
tRp17
ag2
(g4
S'\x1aIO>'
tRp18
ag2
(g4
S'\x9b\xccG>'
tRp19
ag2
(g4
S'\xb7\xf05>'
tRp20
ag2
(g4
S'\x97\xac#>'
tRp21
ag2
(g4
S'\xd1\xb9\x15>'
tRp22
ag2
(g4
S'\x83`\x08>'
tRp23
ag2
(g4
S'\x85\x9e\xfd='
tRp24
ag2
(g4
S'\x86w\xe0='
tRp25
ag2
(g4
S'\xedP\xd9='
tRp26
ag2
(g4
S'0q\xbf='
tRp27
ag2
(g4
S'|;\xa9='
tRp28
ag2
(g4
S'\xdet\x9a='
tRp29
ag2
(g4
S'\x0fD\x89='
tRp30
ag2
(g4
S'\x17\x81z='
tRp31
ag2
(g4
S'L\n!='
tRp32
ag2
(g4
S'X\x90\x08='
tRp33
ag2
(g4
S'\xfb\x83\xf5<'
tRp34
ag2
(g4
S'\x07\xb0\xda<'
tRp35
ag2
(g4
S'F\xcf\xcc<'
tRp36
ag2
(g4
S'<N\xbf<'
tRp37
ag2
(g4
S'\xcfs\xae<'
tRp38
ag2
(g4
S'(^\xa2<'
tRp39
ag2
(g4
S'@#\x98<'
tRp40
ag2
(g4
S'\x17\x89\x87<'
tRp41
ag2
(g4
S'\x8b^\x89<'
tRp42
ag2
(g4
S'\x08/z<'
tRp43
ag2
(g4
S'F1b<'
tRp44
ag2
(g4
S'\x17C_<'
tRp45
ag2
(g4
S'{\xc0T<'
tRp46
ag2
(g4
S'7\xb4O<'
tRp47
ag2
(g4
S'\xb5m9<'
tRp48
ag2
(g4
S'~26<'
tRp49
ag2
(g4
S'\xa8\xe3*<'
tRp50
ag2
(g4
S'F\xb4*<'
tRp51
ag2
(g4
S'ar\x1c<'
tRp52
ag2
(g4
S'\x88\xe0\x13<'
tRp53
ag2
(g4
S'\xd8K\x10<'
tRp54
ag2
(g4
S'\xae\x18\x05<'
tRp55
ag2
(g4
S'\x0f\xf3\xfc;'
tRp56
ag2
(g4
S'U!\xf2;'
tRp57
ag2
(g4
S'\xd3_\xeb;'
tRp58
ag2
(g4
S'\x1aT\xab;'
tRp59
ag2
(g4
S'\xe3\x0c\x9c;'
tRp60
ag2
(g4
S'}\xc9\x93;'
tRp61
ag2
(g4
S'\xb3I\x91;'
tRp62
ag2
(g4
S'7\xc9\x8a;'
tRp63
ag2
(g4
S'\xab\xcf\x86;'
tRp64
ag2
(g4
S'\xb8\x81\x85;'
tRp65
ag2
(g4
S'\xbe\x0e\x7f;'
tRp66
ag2
(g4
S'0\x05w;'
tRp67
ag2
(g4
S'D\x86u;'
tRp68
ag2
(g4
S'{*p;'
tRp69
ag2
(g4
S'N\x8fr;'
tRp70
ag2
(g4
S'!\xdce;'
tRp71
ag2
(g4
S'\x99\xd0];'
tRp72
ag2
(g4
S'\xbch];'
tRp73
ag2
(g4
S'XtW;'
tRp74
ag2
(g4
S'\x01\xc7W;'
tRp75
ag2
(g4
S'hUS;'
tRp76
a.