(lp1
cnumpy.core.multiarray
scalar
p2
(cnumpy
dtype
p3
(S'f4'
I0
I1
tRp4
(I3
S'<'
NNNI-1
I-1
I0
tbS'F`\x89?'
tRp5
ag2
(g4
S'\xd8\x07\x10?'
tRp6
ag2
(g4
S'\x92=\x0c?'
tRp7
ag2
(g4
S'Q\xff\xff>'
tRp8
ag2
(g4
S'V\xca\xe7>'
tRp9
ag2
(g4
S'\x7f\x1b\xd3>'
tRp10
ag2
(g4
S'\xa0\xf4\xc8>'
tRp11
ag2
(g4
S'{\xa4\xc0>'
tRp12
ag2
(g4
S'ii\xba>'
tRp13
ag2
(g4
S'\x85K\xb7>'
tRp14
ag2
(g4
S'\x8b4\xaf>'
tRp15
ag2
(g4
S'I\x8d\xa6>'
tRp16
ag2
(g4
S'\x0cg\x9f>'
tRp17
ag2
(g4
S'Z\x11\x99>'
tRp18
ag2
(g4
S'\x15\xfa\x96>'
tRp19
ag2
(g4
S'2\xc5\x91>'
tRp20
ag2
(g4
S'\xa28\x8c>'
tRp21
ag2
(g4
S'\x03\xe7\x88>'
tRp22
ag2
(g4
S'Ra\x86>'
tRp23
ag2
(g4
S'\xaf.\x83>'
tRp24
ag2
(g4
S'D$~>'
tRp25
ag2
(g4
S'\xa2\xaay>'
tRp26
ag2
(g4
S'\xd1\xd1u>'
tRp27
ag2
(g4
S'\n\x10p>'
tRp28
ag2
(g4
S't\xc9i>'
tRp29
ag2
(g4
S'\x1a\xdde>'
tRp30
ag2
(g4
S'\x9bg_>'
tRp31
ag2
(g4
S'\xa05P>'
tRp32
ag2
(g4
S'}IL>'
tRp33
ag2
(g4
S'\x05kI>'
tRp34
ag2
(g4
S'\x19lE>'
tRp35
ag2
(g4
S'pwC>'
tRp36
ag2
(g4
S'D\xda@>'
tRp37
ag2
(g4
S'\xe7\xcb=>'
tRp38
ag2
(g4
S'e\xb1;>'
tRp39
ag2
(g4
S'\\\x0c:>'
tRp40
ag2
(g4
S'\x88\xa57>'
tRp41
ag2
(g4
S'\\\x8d5>'
tRp42
ag2
(g4
S'x\xd23>'
tRp43
ag2
(g4
S'lb1>'
tRp44
ag2
(g4
S'~\xc8/>'
tRp45
ag2
(g4
S'n\xd5->'
tRp46
ag2
(g4
S'\xd7g->'
tRp47
ag2
(g4
S'\xcc\xbc*>'
tRp48
ag2
(g4
S'\xe47)>'
tRp49
ag2
(g4
S"%T'>"
tRp50
ag2
(g4
S'\x98|%>'
tRp51
ag2
(g4
S'\xf6\xd3$>'
tRp52
ag2
(g4
S'{\xac">'
tRp53
ag2
(g4
S'o\xe2 >'
tRp54
ag2
(g4
S'\xd7\x9e\x1e>'
tRp55
ag2
(g4
S'\xd0%\x1e>'
tRp56
ag2
(g4
S'h\x82\x1c>'
tRp57
ag2
(g4
S'x\xaf\x18>'
tRp58
ag2
(g4
S'D\xe3\x13>'
tRp59
ag2
(g4
S'5N\x12>'
tRp60
ag2
(g4
S'\xdc \x11>'
tRp61
ag2
(g4
S'\xfd\x1f\x10>'
tRp62
ag2
(g4
S'i\xd9\x0e>'
tRp63
ag2
(g4
S'\x82X\x0e>'
tRp64
ag2
(g4
S'ag\r>'
tRp65
ag2
(g4
S'A\xaa\x0c>'
tRp66
ag2
(g4
S'Fp\x0c>'
tRp67
ag2
(g4
S'\xee\xa9\n>'
tRp68
ag2
(g4
S'z\xdb\t>'
tRp69
ag2
(g4
S'\xc8\xdf\x08>'
tRp70
ag2
(g4
S'\x10\xdc\x08>'
tRp71
ag2
(g4
S'\xb1\xc8\x07>'
tRp72
ag2
(g4
S'\xac\xce\x06>'
tRp73
ag2
(g4
S'\x1e^\x06>'
tRp74
ag2
(g4
S'C\x9a\x05>'
tRp75
ag2
(g4
S'\x18\r\x04>'
tRp76
a.